target datalayout = "e-m:e-p270:32:32-p271:32:32-p272:64:64-i64:64-i128:128-f80:128-n8:16:32:64-S128"
target triple = "x86_64-pc-linux-gnu"

%struct.grpc_slice_buffer = type { ptr, ptr, i64, i64, i64, [6 x %struct.grpc_slice] }
%struct.grpc_slice = type { ptr, %"union.grpc_slice::grpc_slice_data" }
%"union.grpc_slice::grpc_slice_data" = type { %"struct.grpc_slice::grpc_slice_data::grpc_slice_refcounted", [8 x i8] }
%"struct.grpc_slice::grpc_slice_data::grpc_slice_refcounted" = type { i64, ptr }
%struct.tsi_fake_zero_copy_grpc_protector = type { %struct.tsi_zero_copy_grpc_protector, %struct.grpc_slice_buffer, %struct.grpc_slice_buffer, i64, i64 }
%struct.tsi_zero_copy_grpc_protector = type { ptr }

; Function Attrs: mustprogress uwtable
define internal void @_ZL37fake_zero_copy_grpc_protector_destroyP28tsi_zero_copy_grpc_protector(ptr noundef %0) #4 {
  %2 = alloca ptr, align 8
  %3 = alloca ptr, align 8
  store ptr %0, ptr %2, align 8, !tbaa !172
  %4 = load ptr, ptr %2, align 8, !tbaa !172
  %5 = icmp eq ptr %4, null
  br i1 %5, label %6, label %7

6:                                                ; preds = %1
  br label %14

7:                                                ; preds = %1
  call void @llvm.lifetime.start.p0(i64 8, ptr %3) #3
  %8 = load ptr, ptr %2, align 8, !tbaa !172
  store ptr %8, ptr %3, align 8, !tbaa !52
  %9 = load ptr, ptr %3, align 8, !tbaa !52
  %10 = getelementptr inbounds nuw %struct.tsi_fake_zero_copy_grpc_protector, ptr %9, i32 0, i32 1
  call void @grpc_slice_buffer_destroy(ptr noundef %10)
  %11 = load ptr, ptr %3, align 8, !tbaa !52
  %12 = getelementptr inbounds nuw %struct.tsi_fake_zero_copy_grpc_protector, ptr %11, i32 0, i32 2
  call void @grpc_slice_buffer_destroy(ptr noundef %12)
  %13 = load ptr, ptr %3, align 8, !tbaa !52
  call void @gpr_free(ptr noundef %13)
  call void @llvm.lifetime.end.p0(i64 8, ptr %3) #3
  br label %14

14:                                               ; preds = %7, %6
  ret void
}