; Function Attrs: mustprogress uwtable
define internal void @_ZL37fake_zero_copy_grpc_protector_destroyP28tsi_zero_copy_grpc_protector(ptr noundef %0) #3 {
  %2 = icmp eq ptr %0, null
  br i1 %2, label %6, label %3

3:                                                ; preds = %1
  %4 = getelementptr inbounds nuw i8, ptr %0, i64 8
  tail call void @grpc_slice_buffer_destroy(ptr noundef nonnull %4)
  %5 = getelementptr inbounds nuw i8, ptr %0, i64 240
  tail call void @grpc_slice_buffer_destroy(ptr noundef nonnull %5)
  tail call void @gpr_free(ptr noundef nonnull %0)
  br label %6

6:                                                ; preds = %1, %3
  ret void
}